target datalayout = "e-m:e-p270:32:32-p271:32:32-p272:64:64-i64:64-i128:128-f80:128-n8:16:32:64-S128"
target triple = "x86_64-pc-linux-gnu"

%struct.quic_conn_st = type { %struct.quic_obj_st, ptr, ptr, ptr, ptr, ptr, ptr, ptr, ptr, %union.bio_addr_st, %struct.quic_thread_assist_st, i64, i16, i32, i32, i64, i32, i64, i32 }
%struct.quic_obj_st = type { %struct.ssl_st, ptr, ptr, ptr, ptr, ptr, i64, i8 }
%struct.ssl_st = type { i32, ptr, ptr, ptr, %struct.CRYPTO_REF_COUNT, ptr, %struct.crypto_ex_data_st }
%struct.CRYPTO_REF_COUNT = type { i32 }
%struct.crypto_ex_data_st = type { ptr, ptr }
%union.bio_addr_st = type { %struct.sockaddr_in6, [84 x i8] }
%struct.sockaddr_in6 = type { i16, i16, i32, %struct.in6_addr, i32 }
%struct.in6_addr = type { %union.anon }
%union.anon = type { [4 x i32] }
%struct.quic_thread_assist_st = type { ptr, ptr, ptr, i32, i32 }
%struct.OSSL_TIME = type { i64 }
%struct.quic_xso_st = type { %struct.quic_obj_st, ptr, ptr, i8, ptr, i64, i64, i32, i64, i32 }
%struct.quic_stream_st = type { %struct.quic_stream_list_node_st, %struct.quic_stream_list_node_st, %struct.quic_stream_list_node_st, ptr, i64, i64, i64, i64, i64, i64, i64, ptr, ptr, %struct.quic_txfc_st, %struct.quic_rxfc_st, i64 }
%struct.quic_stream_list_node_st = type { ptr, ptr }
%struct.quic_txfc_st = type { ptr, i64, i64, i8 }
%struct.quic_rxfc_st = type { i64, i64, i64, i64, i64, i64, i64, %struct.OSSL_TIME, ptr, ptr, ptr, i8, i8, i8, i8 }

; Function Attrs: nounwind uwtable
define internal void @quic_post_write(ptr noundef %0, i32 noundef %1, i32 noundef %2, i64 noundef %3, i32 noundef %4) #0 {
  %6 = alloca ptr, align 8
  %7 = alloca i32, align 4
  %8 = alloca i32, align 4
  %9 = alloca i64, align 8
  %10 = alloca i32, align 4
  store ptr %0, ptr %6, align 8, !tbaa !156
  store i32 %1, ptr %7, align 4, !tbaa !122
  store i32 %2, ptr %8, align 4, !tbaa !122
  store i64 %3, ptr %9, align 8, !tbaa !169
  store i32 %4, ptr %10, align 4, !tbaa !122
  %11 = load i32, ptr %7, align 4, !tbaa !122
  %12 = icmp ne i32 %11, 0
  br i1 %12, label %13, label %23

13:                                               ; preds = %5
  %14 = load ptr, ptr %6, align 8, !tbaa !156
  %15 = getelementptr inbounds nuw %struct.quic_xso_st, ptr %14, i32 0, i32 1
  %16 = load ptr, ptr %15, align 8, !tbaa !210
  %17 = getelementptr inbounds nuw %struct.quic_conn_st, ptr %16, i32 0, i32 6
  %18 = load ptr, ptr %17, align 8, !tbaa !106
  %19 = call ptr @ossl_quic_channel_get_qsm(ptr noundef %18)
  %20 = load ptr, ptr %6, align 8, !tbaa !156
  %21 = getelementptr inbounds nuw %struct.quic_xso_st, ptr %20, i32 0, i32 2
  %22 = load ptr, ptr %21, align 8, !tbaa !142
  call void @ossl_quic_stream_map_update_state(ptr noundef %19, ptr noundef %22)
  br label %23

23:                                               ; preds = %13, %5
  %24 = load i32, ptr %8, align 4, !tbaa !122
  %25 = icmp ne i32 %24, 0
  br i1 %25, label %26, label %36

26:                                               ; preds = %23
  %27 = load i64, ptr %9, align 8, !tbaa !169
  %28 = and i64 %27, 1
  %29 = icmp ne i64 %28, 0
  br i1 %29, label %30, label %36

30:                                               ; preds = %26
  %31 = load ptr, ptr %6, align 8, !tbaa !156
  %32 = getelementptr inbounds nuw %struct.quic_xso_st, ptr %31, i32 0, i32 2
  %33 = load ptr, ptr %32, align 8, !tbaa !142
  %34 = getelementptr inbounds nuw %struct.quic_stream_st, ptr %33, i32 0, i32 11
  %35 = load ptr, ptr %34, align 8, !tbaa !145
  call void @ossl_quic_sstream_fin(ptr noundef %35)
  br label %36

36:                                               ; preds = %30, %26, %23
  %37 = load i32, ptr %10, align 4, !tbaa !122
  %38 = icmp ne i32 %37, 0
  br i1 %38, label %39, label %47

39:                                               ; preds = %36
  %40 = load ptr, ptr %6, align 8, !tbaa !156
  %41 = getelementptr inbounds nuw %struct.quic_xso_st, ptr %40, i32 0, i32 1
  %42 = load ptr, ptr %41, align 8, !tbaa !210
  %43 = getelementptr inbounds nuw %struct.quic_conn_st, ptr %42, i32 0, i32 6
  %44 = load ptr, ptr %43, align 8, !tbaa !106
  %45 = call ptr @ossl_quic_channel_get_reactor(ptr noundef %44)
  %46 = call i32 @ossl_quic_reactor_tick(ptr noundef %45, i32 noundef 0)
  br label %47

47:                                               ; preds = %39, %36
  ret void
}