; Function Attrs: nounwind uwtable
define internal fastcc void @quic_post_write(ptr noundef readonly captures(none) %0, i32 noundef range(i32 0, 2) %1, i32 noundef range(i32 0, 2) %2, i64 noundef %3, i32 noundef range(i32 0, 2) %4) unnamed_addr #0 {
  %.not = icmp eq i32 %1, 0
  br i1 %.not, label %14, label %6

6:                                                ; preds = %5
  %7 = getelementptr inbounds nuw i8, ptr %0, i64 120
  %8 = load ptr, ptr %7, align 8, !tbaa !136
  %9 = getelementptr inbounds nuw i8, ptr %8, i64 160
  %10 = load ptr, ptr %9, align 8, !tbaa !113
  %11 = tail call ptr @ossl_quic_channel_get_qsm(ptr noundef %10) #12
  %12 = getelementptr inbounds nuw i8, ptr %0, i64 128
  %13 = load ptr, ptr %12, align 8, !tbaa !145
  tail call void @ossl_quic_stream_map_update_state(ptr noundef %11, ptr noundef %13) #12
  br label %14

14:                                               ; preds = %6, %5
  %.not7 = icmp eq i32 %2, 0
  %15 = and i64 %3, 1
  %.not8 = icmp eq i64 %15, 0
  %or.cond = or i1 %.not7, %.not8
  br i1 %or.cond, label %21, label %16

16:                                               ; preds = %14
  %17 = getelementptr inbounds nuw i8, ptr %0, i64 128
  %18 = load ptr, ptr %17, align 8, !tbaa !145
  %19 = getelementptr inbounds nuw i8, ptr %18, i64 112
  %20 = load ptr, ptr %19, align 8, !tbaa !146
  tail call void @ossl_quic_sstream_fin(ptr noundef %20) #12
  br label %21

21:                                               ; preds = %16, %14
  %.not9 = icmp eq i32 %4, 0
  br i1 %.not9, label %29, label %22

22:                                               ; preds = %21
  %23 = getelementptr inbounds nuw i8, ptr %0, i64 120
  %24 = load ptr, ptr %23, align 8, !tbaa !136
  %25 = getelementptr inbounds nuw i8, ptr %24, i64 160
  %26 = load ptr, ptr %25, align 8, !tbaa !113
  %27 = tail call ptr @ossl_quic_channel_get_reactor(ptr noundef %26) #12
  %28 = tail call i32 @ossl_quic_reactor_tick(ptr noundef %27, i32 noundef 0) #12
  br label %29

29:                                               ; preds = %22, %21
  ret void
}